target datalayout = "e-m:e-p270:32:32-p271:32:32-p272:64:64-i64:64-i128:128-f80:128-n8:16:32:64-S128"
target triple = "x86_64-pc-linux-gnu"

%class.VNType = type { i16 }
%class.AstNode = type { ptr, ptr, ptr, ptr, ptr, ptr, ptr, ptr, %class.VNType, %struct.anon, i8, i32, ptr, ptr, ptr, ptr, %class.VNUser, i32, i32, %class.VNUser, %class.VNUser, i32, i32, %class.VNUser }
%struct.anon = type { i8 }
%class.VNUser = type { %union.anon.3 }
%union.anon.3 = type { ptr }

@_ZN7AstNode13s_cloneCntGblE = dso_local global i32 0, align 4

; Function Attrs: mustprogress nounwind uwtable
define linkonce_odr dso_local noundef ptr @_ZNK7AstNode6clonepEv(ptr noundef nonnull align 8 dereferenceable(152) %0) #5 comdat align 2 {
  %2 = alloca ptr, align 8
  store ptr %0, ptr %2, align 8
  %3 = load ptr, ptr %2, align 8
  %4 = getelementptr inbounds %class.AstNode, ptr %3, i32 0, i32 11
  %5 = load i32, ptr %4, align 4
  %6 = load i32, ptr @_ZN7AstNode13s_cloneCntGblE, align 4
  %7 = icmp eq i32 %5, %6
  br i1 %7, label %8, label %11

8:                                                ; preds = %1
  %9 = getelementptr inbounds %class.AstNode, ptr %3, i32 0, i32 15
  %10 = load ptr, ptr %9, align 8
  br label %12

11:                                               ; preds = %1
  br label %12

12:                                               ; preds = %11, %8
  %13 = phi ptr [ %10, %8 ], [ null, %11 ]
  ret ptr %13
}

; Function Attrs: mustprogress uwtable
define linkonce_odr dso_local noundef ptr @_ZNK12AstNodeDType6clonepEv(ptr noundef nonnull align 8 dereferenceable(162) %0) #4 comdat align 2 {
  %2 = alloca ptr, align 8
  store ptr %0, ptr %2, align 8
  %3 = load ptr, ptr %2, align 8
  %4 = call noundef ptr @_ZNK7AstNode6clonepEv(ptr noundef nonnull align 8 dereferenceable(152) %3)
  ret ptr %4
}

; Function Attrs: mustprogress uwtable
define dso_local void @_ZN7AstNode15cloneRelinkTreeEv(ptr noundef nonnull align 8 dereferenceable(152) %0) #4 align 2 {
  %2 = alloca ptr, align 8
  %3 = alloca ptr, align 8
  store ptr %0, ptr %2, align 8
  %4 = load ptr, ptr %2, align 8
  store ptr %4, ptr %3, align 8
  br label %5

5:                                                ; preds = %67, %1
  %6 = load ptr, ptr %3, align 8
  %7 = icmp ne ptr %6, null
  br i1 %7, label %8, label %71

8:                                                ; preds = %5
  %9 = load ptr, ptr %3, align 8
  %10 = getelementptr inbounds %class.AstNode, ptr %9, i32 0, i32 12
  %11 = load ptr, ptr %10, align 8
  %12 = icmp ne ptr %11, null
  br i1 %12, label %13, label %26

13:                                               ; preds = %8
  %14 = load ptr, ptr %3, align 8
  %15 = getelementptr inbounds %class.AstNode, ptr %14, i32 0, i32 12
  %16 = load ptr, ptr %15, align 8
  %17 = call noundef ptr @_ZNK12AstNodeDType6clonepEv(ptr noundef nonnull align 8 dereferenceable(162) %16)
  %18 = icmp ne ptr %17, null
  br i1 %18, label %19, label %26

19:                                               ; preds = %13
  %20 = load ptr, ptr %3, align 8
  %21 = getelementptr inbounds %class.AstNode, ptr %20, i32 0, i32 12
  %22 = load ptr, ptr %21, align 8
  %23 = call noundef ptr @_ZNK12AstNodeDType6clonepEv(ptr noundef nonnull align 8 dereferenceable(162) %22)
  %24 = load ptr, ptr %3, align 8
  %25 = getelementptr inbounds %class.AstNode, ptr %24, i32 0, i32 12
  store ptr %23, ptr %25, align 8
  br label %26

26:                                               ; preds = %19, %13, %8
  %27 = load ptr, ptr %3, align 8
  %28 = load ptr, ptr %27, align 8
  %29 = getelementptr inbounds ptr, ptr %28, i64 1
  %30 = load ptr, ptr %29, align 8
  call void %30(ptr noundef nonnull align 8 dereferenceable(152) %27)
  %31 = load ptr, ptr %3, align 8
  %32 = getelementptr inbounds %class.AstNode, ptr %31, i32 0, i32 3
  %33 = load ptr, ptr %32, align 8
  %34 = icmp ne ptr %33, null
  br i1 %34, label %35, label %39

35:                                               ; preds = %26
  %36 = load ptr, ptr %3, align 8
  %37 = getelementptr inbounds %class.AstNode, ptr %36, i32 0, i32 3
  %38 = load ptr, ptr %37, align 8
  call void @_ZN7AstNode15cloneRelinkTreeEv(ptr noundef nonnull align 8 dereferenceable(152) %38)
  br label %39

39:                                               ; preds = %35, %26
  %40 = load ptr, ptr %3, align 8
  %41 = getelementptr inbounds %class.AstNode, ptr %40, i32 0, i32 4
  %42 = load ptr, ptr %41, align 8
  %43 = icmp ne ptr %42, null
  br i1 %43, label %44, label %48

44:                                               ; preds = %39
  %45 = load ptr, ptr %3, align 8
  %46 = getelementptr inbounds %class.AstNode, ptr %45, i32 0, i32 4
  %47 = load ptr, ptr %46, align 8
  call void @_ZN7AstNode15cloneRelinkTreeEv(ptr noundef nonnull align 8 dereferenceable(152) %47)
  br label %48

48:                                               ; preds = %44, %39
  %49 = load ptr, ptr %3, align 8
  %50 = getelementptr inbounds %class.AstNode, ptr %49, i32 0, i32 5
  %51 = load ptr, ptr %50, align 8
  %52 = icmp ne ptr %51, null
  br i1 %52, label %53, label %57

53:                                               ; preds = %48
  %54 = load ptr, ptr %3, align 8
  %55 = getelementptr inbounds %class.AstNode, ptr %54, i32 0, i32 5
  %56 = load ptr, ptr %55, align 8
  call void @_ZN7AstNode15cloneRelinkTreeEv(ptr noundef nonnull align 8 dereferenceable(152) %56)
  br label %57

57:                                               ; preds = %53, %48
  %58 = load ptr, ptr %3, align 8
  %59 = getelementptr inbounds %class.AstNode, ptr %58, i32 0, i32 6
  %60 = load ptr, ptr %59, align 8
  %61 = icmp ne ptr %60, null
  br i1 %61, label %62, label %66

62:                                               ; preds = %57
  %63 = load ptr, ptr %3, align 8
  %64 = getelementptr inbounds %class.AstNode, ptr %63, i32 0, i32 6
  %65 = load ptr, ptr %64, align 8
  call void @_ZN7AstNode15cloneRelinkTreeEv(ptr noundef nonnull align 8 dereferenceable(152) %65)
  br label %66

66:                                               ; preds = %62, %57
  br label %67

67:                                               ; preds = %66
  %68 = load ptr, ptr %3, align 8
  %69 = getelementptr inbounds %class.AstNode, ptr %68, i32 0, i32 1
  %70 = load ptr, ptr %69, align 8
  store ptr %70, ptr %3, align 8
  br label %5, !llvm.loop !16

71:                                               ; preds = %5
  ret void
}