; Function Attrs: mustprogress uwtable
define dso_local void @_ZN7AstNode15cloneRelinkTreeEv(ptr noundef nonnull align 8 dereferenceable(152) %0) local_unnamed_addr #4 align 2 {
  br label %2

2:                                                ; preds = %1, %32
  %.028 = phi ptr [ %0, %1 ], [ %34, %32 ]
  %3 = getelementptr inbounds i8, ptr %.028, i64 72
  %4 = load ptr, ptr %3, align 8
  %.not21 = icmp eq ptr %4, null
  br i1 %.not21, label %13, label %5

5:                                                ; preds = %2
  %6 = getelementptr inbounds i8, ptr %4, i64 68
  %7 = load i32, ptr %6, align 4
  %8 = load i32, ptr @_ZN7AstNode13s_cloneCntGblE, align 4
  %9 = icmp ne i32 %7, %8
  %10 = getelementptr inbounds i8, ptr %4, i64 96
  %11 = load ptr, ptr %10, align 8
  %.not2227 = icmp eq ptr %11, null
  %.not22 = select i1 %9, i1 true, i1 %.not2227
  br i1 %.not22, label %13, label %12

12:                                               ; preds = %5
  store ptr %11, ptr %3, align 8
  br label %13

13:                                               ; preds = %12, %5, %2
  %14 = load ptr, ptr %.028, align 8
  %15 = getelementptr inbounds i8, ptr %14, i64 8
  %16 = load ptr, ptr %15, align 8
  tail call void %16(ptr noundef nonnull align 8 dereferenceable(152) %.028)
  %17 = getelementptr inbounds i8, ptr %.028, i64 24
  %18 = load ptr, ptr %17, align 8
  %.not23 = icmp eq ptr %18, null
  br i1 %.not23, label %20, label %19

19:                                               ; preds = %13
  tail call void @_ZN7AstNode15cloneRelinkTreeEv(ptr noundef nonnull align 8 dereferenceable(152) %18)
  br label %20

20:                                               ; preds = %19, %13
  %21 = getelementptr inbounds i8, ptr %.028, i64 32
  %22 = load ptr, ptr %21, align 8
  %.not24 = icmp eq ptr %22, null
  br i1 %.not24, label %24, label %23

23:                                               ; preds = %20
  tail call void @_ZN7AstNode15cloneRelinkTreeEv(ptr noundef nonnull align 8 dereferenceable(152) %22)
  br label %24

24:                                               ; preds = %23, %20
  %25 = getelementptr inbounds i8, ptr %.028, i64 40
  %26 = load ptr, ptr %25, align 8
  %.not25 = icmp eq ptr %26, null
  br i1 %.not25, label %28, label %27

27:                                               ; preds = %24
  tail call void @_ZN7AstNode15cloneRelinkTreeEv(ptr noundef nonnull align 8 dereferenceable(152) %26)
  br label %28

28:                                               ; preds = %27, %24
  %29 = getelementptr inbounds i8, ptr %.028, i64 48
  %30 = load ptr, ptr %29, align 8
  %.not26 = icmp eq ptr %30, null
  br i1 %.not26, label %32, label %31

31:                                               ; preds = %28
  tail call void @_ZN7AstNode15cloneRelinkTreeEv(ptr noundef nonnull align 8 dereferenceable(152) %30)
  br label %32

32:                                               ; preds = %28, %31
  %33 = getelementptr inbounds i8, ptr %.028, i64 8
  %34 = load ptr, ptr %33, align 8
  %.not = icmp eq ptr %34, null
  br i1 %.not, label %35, label %2, !llvm.loop !71

35:                                               ; preds = %32
  ret void
}